target datalayout = "e-m:e-p270:32:32-p271:32:32-p272:64:64-i64:64-i128:128-f80:128-n8:16:32:64-S128"
target triple = "x86_64-unknown-linux-gnu"

%class.symbol = type { ptr }
%"class.datalog::rel_context" = type { %"class.datalog::rel_context_base", ptr, ptr, %"class.datalog::relation_manager", %class.obj_ref, ptr, %class.vector.22, %"class.datalog::execution_context", %"class.datalog::instruction_block", double }
%"class.datalog::rel_context_base" = type { %"class.datalog::engine_base" }
%"class.datalog::engine_base" = type { ptr, ptr, %"class.std::__cxx11::basic_string" }
%"class.std::__cxx11::basic_string" = type { %"struct.std::__cxx11::basic_string<char>::_Alloc_hider", i64, %union.anon }
%"struct.std::__cxx11::basic_string<char>::_Alloc_hider" = type { ptr }
%union.anon = type { i64, [8 x i8] }
%"class.datalog::relation_manager" = type { ptr, ptr, %class.ptr_vector, %class.ptr_vector.0, %class.map, %class.map.2, %class.u_map, ptr, ptr, %class.obj_map, %class.obj_hashtable, i32, i32, %class.obj_map.17 }
%class.ptr_vector = type { %class.vector }
%class.vector = type { ptr }
%class.ptr_vector.0 = type { %class.vector.1 }
%class.vector.1 = type { ptr }
%class.map = type { %class.table2map }
%class.table2map = type { %class.core_hashtable }
%class.core_hashtable = type <{ ptr, i32, i32, i32, [4 x i8] }>
%class.map.2 = type { %class.table2map.3 }
%class.table2map.3 = type { %class.core_hashtable.4 }
%class.core_hashtable.4 = type <{ ptr, i32, i32, i32, [4 x i8] }>
%class.u_map = type { %class.map.8 }
%class.map.8 = type { %class.table2map.9 }
%class.table2map.9 = type { %class.core_hashtable.10 }
%class.core_hashtable.10 = type <{ ptr, i32, i32, i32, [4 x i8] }>
%class.obj_map = type { %class.core_hashtable.12 }
%class.core_hashtable.12 = type <{ ptr, i32, i32, i32, [4 x i8] }>
%class.obj_hashtable = type { %class.core_hashtable.base.16, [4 x i8] }
%class.core_hashtable.base.16 = type <{ ptr, i32, i32, i32 }>
%class.obj_map.17 = type { %class.core_hashtable.18 }
%class.core_hashtable.18 = type <{ ptr, i32, i32, i32, [4 x i8] }>
%class.obj_ref = type { ptr, ptr }
%class.vector.22 = type { ptr }
%"class.datalog::execution_context" = type <{ ptr, %class.vector.23, %class.u_map.24, ptr, i32, %"struct.datalog::execution_context::stats", [4 x i8] }>
%class.vector.23 = type { ptr }
%class.u_map.24 = type { %class.map.25 }
%class.map.25 = type { %class.table2map.26 }
%class.table2map.26 = type { %class.core_hashtable.27 }
%class.core_hashtable.27 = type <{ ptr, i32, i32, i32, [4 x i8] }>
%"struct.datalog::execution_context::stats" = type { i32, i32, i32, i32, i32, i32, i32, i32, i32, i32, i32, i32, i32, i32 }
%"class.datalog::instruction_block" = type { %class.ptr_vector.29, ptr }
%class.ptr_vector.29 = type { %class.vector.30 }
%class.vector.30 = type { ptr }
%"class.datalog::relation_plugin.base" = type <{ %"class.datalog::tr_infrastructure<datalog::relation_traits>::plugin_object", i32 }>
%"class.datalog::tr_infrastructure<datalog::relation_traits>::plugin_object" = type { ptr, i32, %class.symbol, ptr }
%"class.datalog::check_relation_plugin" = type { %"class.datalog::relation_plugin.base", ptr, ptr }

@.str.3 = private unnamed_addr constant [4 x i8] c"doc\00", align 1
@_ZN6symbol4nullE = external global %class.symbol, align 8
@.str.10 = private unnamed_addr constant [5 x i8] c"null\00", align 1
@.str.11 = private unnamed_addr constant [15 x i8] c"check_relation\00", align 1
@_ZTIN7datalog21check_relation_pluginE = external constant ptr

; Function Attrs: mustprogress nounwind uwtable
define linkonce_odr hidden noundef zeroext i1 @_ZeqRK6symbolS1_(ptr noundef nonnull align 8 dereferenceable(8) %s1, ptr noundef nonnull align 8 dereferenceable(8) %s2) #5 comdat {
entry:
  %s1.addr = alloca ptr, align 8
  %s2.addr = alloca ptr, align 8
  store ptr %s1, ptr %s1.addr, align 8
  store ptr %s2, ptr %s2.addr, align 8
  %0 = load ptr, ptr %s1.addr, align 8
  %m_data = getelementptr inbounds %class.symbol, ptr %0, i32 0, i32 0
  %1 = load ptr, ptr %m_data, align 8
  %2 = load ptr, ptr %s2.addr, align 8
  %m_data1 = getelementptr inbounds %class.symbol, ptr %2, i32 0, i32 0
  %3 = load ptr, ptr %m_data1, align 8
  %cmp = icmp eq ptr %1, %3
  ret i1 %cmp
}

; Function Attrs: mustprogress nounwind uwtable
define linkonce_odr hidden void @_ZN7datalog16relation_manager20set_favourite_pluginEPNS_15relation_pluginE(ptr noundef nonnull align 8 dereferenceable(200) %this, ptr noundef %p) #5 comdat align 2 {
entry:
  %this.addr = alloca ptr, align 8
  %p.addr = alloca ptr, align 8
  store ptr %this, ptr %this.addr, align 8
  store ptr %p, ptr %p.addr, align 8
  %this1 = load ptr, ptr %this.addr, align 8
  %0 = load ptr, ptr %p.addr, align 8
  %m_favourite_relation_plugin = getelementptr inbounds %"class.datalog::relation_manager", ptr %this1, i32 0, i32 8
  store ptr %0, ptr %m_favourite_relation_plugin, align 8
  ret void
}

; Function Attrs: mustprogress nounwind uwtable
define linkonce_odr hidden void @_ZN7datalog21check_relation_plugin10set_pluginEPNS_15relation_pluginE(ptr noundef nonnull align 8 dereferenceable(56) %this, ptr noundef %p) #5 comdat align 2 {
entry:
  %this.addr = alloca ptr, align 8
  %p.addr = alloca ptr, align 8
  store ptr %this, ptr %this.addr, align 8
  store ptr %p, ptr %p.addr, align 8
  %this1 = load ptr, ptr %this.addr, align 8
  %0 = load ptr, ptr %p.addr, align 8
  %m_base = getelementptr inbounds %"class.datalog::check_relation_plugin", ptr %this1, i32 0, i32 2
  store ptr %0, ptr %m_base, align 8
  ret void
}

; Function Attrs: mustprogress nounwind uwtable
define linkonce_odr hidden noundef zeroext i1 @_ZneRK6symbolS1_(ptr noundef nonnull align 8 dereferenceable(8) %s1, ptr noundef nonnull align 8 dereferenceable(8) %s2) #5 comdat {
entry:
  %s1.addr = alloca ptr, align 8
  %s2.addr = alloca ptr, align 8
  store ptr %s1, ptr %s1.addr, align 8
  store ptr %s2, ptr %s2.addr, align 8
  %0 = load ptr, ptr %s1.addr, align 8
  %m_data = getelementptr inbounds %class.symbol, ptr %0, i32 0, i32 0
  %1 = load ptr, ptr %m_data, align 8
  %2 = load ptr, ptr %s2.addr, align 8
  %m_data1 = getelementptr inbounds %class.symbol, ptr %2, i32 0, i32 0
  %3 = load ptr, ptr %m_data1, align 8
  %cmp = icmp ne ptr %1, %3
  ret i1 %cmp
}

; Function Attrs: mustprogress uwtable
define hidden void @_ZN7datalog11rel_context11updt_paramsEv(ptr noundef nonnull align 8 dereferenceable(432) %this) unnamed_addr #4 align 2 {
entry:
  %this.addr = alloca ptr, align 8
  %ref.tmp = alloca %class.symbol, align 8
  %ref.tmp3 = alloca %class.symbol, align 8
  %ref.tmp7 = alloca %class.symbol, align 8
  %cr = alloca %class.symbol, align 8
  %p = alloca ptr, align 8
  %p1 = alloca ptr, align 8
  %p2 = alloca ptr, align 8
  %ref.tmp15 = alloca %class.symbol, align 8
  %ref.tmp23 = alloca %class.symbol, align 8
  %ref.tmp27 = alloca %class.symbol, align 8
  store ptr %this, ptr %this.addr, align 8
  %this1 = load ptr, ptr %this.addr, align 8
  %m_context = getelementptr inbounds %"class.datalog::rel_context", ptr %this1, i32 0, i32 1
  %0 = load ptr, ptr %m_context, align 8
  %call = call ptr @_ZNK7datalog7context14check_relationEv(ptr noundef nonnull align 8 dereferenceable(3556) %0)
  %coerce.dive = getelementptr inbounds %class.symbol, ptr %ref.tmp, i32 0, i32 0
  store ptr %call, ptr %coerce.dive, align 8
  %call2 = call noundef zeroext i1 @_ZneRK6symbolS1_(ptr noundef nonnull align 8 dereferenceable(8) %ref.tmp, ptr noundef nonnull align 8 dereferenceable(8) @_ZN6symbol4nullE)
  br i1 %call2, label %land.rhs, label %land.end

land.rhs:                                         ; preds = %entry
  %m_context4 = getelementptr inbounds %"class.datalog::rel_context", ptr %this1, i32 0, i32 1
  %1 = load ptr, ptr %m_context4, align 8
  %call5 = call ptr @_ZNK7datalog7context14check_relationEv(ptr noundef nonnull align 8 dereferenceable(3556) %1)
  %coerce.dive6 = getelementptr inbounds %class.symbol, ptr %ref.tmp3, i32 0, i32 0
  store ptr %call5, ptr %coerce.dive6, align 8
  call void @_ZN6symbolC1EPKc(ptr noundef nonnull align 8 dereferenceable(8) %ref.tmp7, ptr noundef @.str.10)
  %call8 = call noundef zeroext i1 @_ZneRK6symbolS1_(ptr noundef nonnull align 8 dereferenceable(8) %ref.tmp3, ptr noundef nonnull align 8 dereferenceable(8) %ref.tmp7)
  br label %land.end

land.end:                                         ; preds = %land.rhs, %entry
  %2 = phi i1 [ false, %entry ], [ %call8, %land.rhs ]
  br i1 %2, label %if.then, label %if.end31

if.then:                                          ; preds = %land.end
  call void @_ZN6symbolC1EPKc(ptr noundef nonnull align 8 dereferenceable(8) %cr, ptr noundef @.str.11)
  %m_context9 = getelementptr inbounds %"class.datalog::rel_context", ptr %this1, i32 0, i32 1
  %3 = load ptr, ptr %m_context9, align 8
  call void @_ZN7datalog7context20set_default_relationERK6symbol(ptr noundef nonnull align 8 dereferenceable(3556) %3, ptr noundef nonnull align 8 dereferenceable(8) %cr)
  %vtable = load ptr, ptr %this1, align 8
  %vfn = getelementptr inbounds ptr, ptr %vtable, i64 24
  %4 = load ptr, ptr %vfn, align 8
  %call10 = call noundef nonnull align 8 dereferenceable(200) ptr %4(ptr noundef nonnull align 8 dereferenceable(432) %this1)
  %call11 = call noundef ptr @_ZN7datalog16relation_manager19get_relation_pluginERK6symbol(ptr noundef nonnull align 8 dereferenceable(200) %call10, ptr noundef nonnull align 8 dereferenceable(8) %cr)
  store ptr %call11, ptr %p, align 8
  %5 = load ptr, ptr %p, align 8
  %6 = icmp eq ptr %5, null
  br i1 %6, label %dynamic_cast.null, label %dynamic_cast.notnull

dynamic_cast.notnull:                             ; preds = %if.then
  %7 = call ptr @__dynamic_cast(ptr %5, ptr @_ZTIN7datalog15relation_pluginE, ptr @_ZTIN7datalog21check_relation_pluginE, i64 0) #3
  br label %dynamic_cast.end

dynamic_cast.null:                                ; preds = %if.then
  br label %dynamic_cast.end

dynamic_cast.end:                                 ; preds = %dynamic_cast.null, %dynamic_cast.notnull
  %8 = phi ptr [ %7, %dynamic_cast.notnull ], [ null, %dynamic_cast.null ]
  store ptr %8, ptr %p1, align 8
  %vtable12 = load ptr, ptr %this1, align 8
  %vfn13 = getelementptr inbounds ptr, ptr %vtable12, i64 24
  %9 = load ptr, ptr %vfn13, align 8
  %call14 = call noundef nonnull align 8 dereferenceable(200) ptr %9(ptr noundef nonnull align 8 dereferenceable(432) %this1)
  %m_context16 = getelementptr inbounds %"class.datalog::rel_context", ptr %this1, i32 0, i32 1
  %10 = load ptr, ptr %m_context16, align 8
  %call17 = call ptr @_ZNK7datalog7context14check_relationEv(ptr noundef nonnull align 8 dereferenceable(3556) %10)
  %coerce.dive18 = getelementptr inbounds %class.symbol, ptr %ref.tmp15, i32 0, i32 0
  store ptr %call17, ptr %coerce.dive18, align 8
  %call19 = call noundef ptr @_ZN7datalog16relation_manager19get_relation_pluginERK6symbol(ptr noundef nonnull align 8 dereferenceable(200) %call14, ptr noundef nonnull align 8 dereferenceable(8) %ref.tmp15)
  store ptr %call19, ptr %p2, align 8
  %11 = load ptr, ptr %p1, align 8
  %12 = load ptr, ptr %p2, align 8
  call void @_ZN7datalog21check_relation_plugin10set_pluginEPNS_15relation_pluginE(ptr noundef nonnull align 8 dereferenceable(56) %11, ptr noundef %12)
  %vtable20 = load ptr, ptr %this1, align 8
  %vfn21 = getelementptr inbounds ptr, ptr %vtable20, i64 24
  %13 = load ptr, ptr %vfn21, align 8
  %call22 = call noundef nonnull align 8 dereferenceable(200) ptr %13(ptr noundef nonnull align 8 dereferenceable(432) %this1)
  %14 = load ptr, ptr %p1, align 8
  call void @_ZN7datalog16relation_manager20set_favourite_pluginEPNS_15relation_pluginE(ptr noundef nonnull align 8 dereferenceable(200) %call22, ptr noundef %14)
  %m_context24 = getelementptr inbounds %"class.datalog::rel_context", ptr %this1, i32 0, i32 1
  %15 = load ptr, ptr %m_context24, align 8
  %call25 = call ptr @_ZNK7datalog7context14check_relationEv(ptr noundef nonnull align 8 dereferenceable(3556) %15)
  %coerce.dive26 = getelementptr inbounds %class.symbol, ptr %ref.tmp23, i32 0, i32 0
  store ptr %call25, ptr %coerce.dive26, align 8
  call void @_ZN6symbolC1EPKc(ptr noundef nonnull align 8 dereferenceable(8) %ref.tmp27, ptr noundef @.str.3)
  %call28 = call noundef zeroext i1 @_ZeqRK6symbolS1_(ptr noundef nonnull align 8 dereferenceable(8) %ref.tmp23, ptr noundef nonnull align 8 dereferenceable(8) %ref.tmp27)
  br i1 %call28, label %if.then29, label %if.end

if.then29:                                        ; preds = %dynamic_cast.end
  %m_context30 = getelementptr inbounds %"class.datalog::rel_context", ptr %this1, i32 0, i32 1
  %16 = load ptr, ptr %m_context30, align 8
  call void @_ZN7datalog7context22set_unbound_compressorEb(ptr noundef nonnull align 8 dereferenceable(3556) %16, i1 noundef zeroext false)
  br label %if.end

if.end:                                           ; preds = %if.then29, %dynamic_cast.end
  br label %if.end31

if.end31:                                         ; preds = %if.end, %land.end
  ret void
}