; Function Attrs: mustprogress uwtable
define hidden void @_ZN7datalog11rel_context11updt_paramsEv(ptr noundef nonnull align 8 dereferenceable(432) %this) unnamed_addr #3 align 2 {
entry:
  %ref.tmp7 = alloca %class.symbol, align 8
  %cr = alloca %class.symbol, align 8
  %ref.tmp15 = alloca %class.symbol, align 8
  %ref.tmp27 = alloca %class.symbol, align 8
  %m_context = getelementptr inbounds i8, ptr %this, i64 48
  %0 = load ptr, ptr %m_context, align 8
  %call = tail call ptr @_ZNK7datalog7context14check_relationEv(ptr noundef nonnull align 8 dereferenceable(3556) %0)
  %1 = load ptr, ptr @_ZN6symbol4nullE, align 8
  %cmp.i.not = icmp eq ptr %call, %1
  br i1 %cmp.i.not, label %if.end31, label %land.rhs

land.rhs:                                         ; preds = %entry
  %2 = load ptr, ptr %m_context, align 8
  %call5 = tail call ptr @_ZNK7datalog7context14check_relationEv(ptr noundef nonnull align 8 dereferenceable(3556) %2)
  call void @_ZN6symbolC1EPKc(ptr noundef nonnull align 8 dereferenceable(8) %ref.tmp7, ptr noundef nonnull @.str.10)
  %3 = load ptr, ptr %ref.tmp7, align 8
  %cmp.i2.not = icmp eq ptr %call5, %3
  br i1 %cmp.i2.not, label %if.end31, label %if.then

if.then:                                          ; preds = %land.rhs
  call void @_ZN6symbolC1EPKc(ptr noundef nonnull align 8 dereferenceable(8) %cr, ptr noundef nonnull @.str.11)
  %4 = load ptr, ptr %m_context, align 8
  call void @_ZN7datalog7context20set_default_relationERK6symbol(ptr noundef nonnull align 8 dereferenceable(3556) %4, ptr noundef nonnull align 8 dereferenceable(8) %cr)
  %vtable = load ptr, ptr %this, align 8
  %vfn = getelementptr inbounds i8, ptr %vtable, i64 192
  %5 = load ptr, ptr %vfn, align 8
  %call10 = call noundef nonnull align 8 dereferenceable(200) ptr %5(ptr noundef nonnull align 8 dereferenceable(432) %this)
  %call11 = call noundef ptr @_ZN7datalog16relation_manager19get_relation_pluginERK6symbol(ptr noundef nonnull align 8 dereferenceable(200) %call10, ptr noundef nonnull align 8 dereferenceable(8) %cr)
  %6 = icmp eq ptr %call11, null
  br i1 %6, label %dynamic_cast.end, label %dynamic_cast.notnull

dynamic_cast.notnull:                             ; preds = %if.then
  %7 = call ptr @__dynamic_cast(ptr nonnull %call11, ptr nonnull @_ZTIN7datalog15relation_pluginE, ptr nonnull @_ZTIN7datalog21check_relation_pluginE, i64 0) #19
  br label %dynamic_cast.end

dynamic_cast.end:                                 ; preds = %if.then, %dynamic_cast.notnull
  %8 = phi ptr [ %7, %dynamic_cast.notnull ], [ null, %if.then ]
  %vtable12 = load ptr, ptr %this, align 8
  %vfn13 = getelementptr inbounds i8, ptr %vtable12, i64 192
  %9 = load ptr, ptr %vfn13, align 8
  %call14 = call noundef nonnull align 8 dereferenceable(200) ptr %9(ptr noundef nonnull align 8 dereferenceable(432) %this)
  %10 = load ptr, ptr %m_context, align 8
  %call17 = call ptr @_ZNK7datalog7context14check_relationEv(ptr noundef nonnull align 8 dereferenceable(3556) %10)
  store ptr %call17, ptr %ref.tmp15, align 8
  %call19 = call noundef ptr @_ZN7datalog16relation_manager19get_relation_pluginERK6symbol(ptr noundef nonnull align 8 dereferenceable(200) %call14, ptr noundef nonnull align 8 dereferenceable(8) %ref.tmp15)
  %m_base.i = getelementptr inbounds i8, ptr %8, i64 48
  store ptr %call19, ptr %m_base.i, align 8
  %vtable20 = load ptr, ptr %this, align 8
  %vfn21 = getelementptr inbounds i8, ptr %vtable20, i64 192
  %11 = load ptr, ptr %vfn21, align 8
  %call22 = call noundef nonnull align 8 dereferenceable(200) ptr %11(ptr noundef nonnull align 8 dereferenceable(432) %this)
  %m_favourite_relation_plugin.i = getelementptr inbounds i8, ptr %call22, i64 112
  store ptr %8, ptr %m_favourite_relation_plugin.i, align 8
  %12 = load ptr, ptr %m_context, align 8
  %call25 = call ptr @_ZNK7datalog7context14check_relationEv(ptr noundef nonnull align 8 dereferenceable(3556) %12)
  call void @_ZN6symbolC1EPKc(ptr noundef nonnull align 8 dereferenceable(8) %ref.tmp27, ptr noundef nonnull @.str.3)
  %13 = load ptr, ptr %ref.tmp27, align 8
  %cmp.i3 = icmp eq ptr %call25, %13
  br i1 %cmp.i3, label %if.then29, label %if.end31

if.then29:                                        ; preds = %dynamic_cast.end
  %14 = load ptr, ptr %m_context, align 8
  call void @_ZN7datalog7context22set_unbound_compressorEb(ptr noundef nonnull align 8 dereferenceable(3556) %14, i1 noundef zeroext false)
  br label %if.end31

if.end31:                                         ; preds = %entry, %dynamic_cast.end, %if.then29, %land.rhs
  ret void
}